target datalayout = "e-m:e-p270:32:32-p271:32:32-p272:64:64-i64:64-i128:128-f80:128-n8:16:32:64-S128"
target triple = "x86_64-pc-linux-gnu"

@last_node_update = external global i64, align 8
@.str.57 = private unnamed_addr constant [35 x i8] c"drain_nodes: invalid node name  %s\00", align 1
@.str.58 = private unnamed_addr constant [32 x i8] c"hostlist_create error on %s: %m\00", align 1
@.str.59 = private unnamed_addr constant [36 x i8] c"drain_nodes: node %s does not exist\00", align 1

; Function Attrs: nounwind uwtable
define dso_local i32 @drain_nodes(ptr noundef %0, ptr noundef %1, i32 noundef %2) #0 {
  %4 = alloca i32, align 4
  %5 = alloca ptr, align 8
  %6 = alloca ptr, align 8
  %7 = alloca i32, align 4
  %8 = alloca i32, align 4
  %9 = alloca ptr, align 8
  %10 = alloca ptr, align 8
  %11 = alloca ptr, align 8
  %12 = alloca i32, align 4
  store ptr %0, ptr %5, align 8
  store ptr %1, ptr %6, align 8
  store i32 %2, ptr %7, align 4
  call void @llvm.lifetime.start.p0(i64 4, ptr %8) #10
  store i32 0, ptr %8, align 4
  call void @llvm.lifetime.start.p0(i64 8, ptr %9) #10
  call void @llvm.lifetime.start.p0(i64 8, ptr %10) #10
  call void @llvm.lifetime.start.p0(i64 8, ptr %11) #10
  %13 = load ptr, ptr %5, align 8
  %14 = icmp eq ptr %13, null
  br i1 %14, label %21, label %15

15:                                               ; preds = %3
  %16 = load ptr, ptr %5, align 8
  %17 = getelementptr inbounds i8, ptr %16, i64 0
  %18 = load i8, ptr %17, align 1
  %19 = sext i8 %18 to i32
  %20 = icmp eq i32 %19, 0
  br i1 %20, label %21, label %24

21:                                               ; preds = %15, %3
  %22 = load ptr, ptr %5, align 8
  %23 = call i32 (ptr, ...) @error(ptr noundef @.str.57, ptr noundef %22)
  store i32 2018, ptr %4, align 4
  store i32 1, ptr %12, align 4
  br label %53

24:                                               ; preds = %15
  %25 = load ptr, ptr %5, align 8
  %26 = call ptr @hostlist_create(ptr noundef %25)
  store ptr %26, ptr %11, align 8
  %27 = icmp eq ptr %26, null
  br i1 %27, label %28, label %31

28:                                               ; preds = %24
  %29 = load ptr, ptr %5, align 8
  %30 = call i32 (ptr, ...) @error(ptr noundef @.str.58, ptr noundef %29)
  store i32 2018, ptr %4, align 4
  store i32 1, ptr %12, align 4
  br label %53

31:                                               ; preds = %24
  br label %32

32:                                               ; preds = %44, %31
  %33 = load ptr, ptr %11, align 8
  %34 = call ptr @hostlist_shift(ptr noundef %33)
  store ptr %34, ptr %10, align 8
  %35 = icmp ne ptr %34, null
  br i1 %35, label %36, label %49

36:                                               ; preds = %32
  %37 = load ptr, ptr %10, align 8
  %38 = call ptr @find_node_record(ptr noundef %37)
  store ptr %38, ptr %9, align 8
  %39 = icmp ne ptr %38, null
  br i1 %39, label %44, label %40

40:                                               ; preds = %36
  store i32 2018, ptr %8, align 4
  %41 = load ptr, ptr %10, align 8
  %42 = call i32 (ptr, ...) @error(ptr noundef @.str.59, ptr noundef %41)
  %43 = load ptr, ptr %10, align 8
  call void @free(ptr noundef %43) #10
  br label %49

44:                                               ; preds = %36
  %45 = load ptr, ptr %10, align 8
  call void @free(ptr noundef %45) #10
  %46 = load ptr, ptr %9, align 8
  %47 = load ptr, ptr %6, align 8
  %48 = load i32, ptr %7, align 4
  call void @_drain_node(ptr noundef %46, ptr noundef %47, i32 noundef %48)
  br label %32, !llvm.loop !29

49:                                               ; preds = %40, %32
  %50 = call i64 @time(ptr noundef null) #10
  store i64 %50, ptr @last_node_update, align 8
  %51 = load ptr, ptr %11, align 8
  call void @hostlist_destroy(ptr noundef %51)
  call void @validate_all_reservations(i1 noundef zeroext false, i1 noundef zeroext false)
  %52 = load i32, ptr %8, align 4
  store i32 %52, ptr %4, align 4
  store i32 1, ptr %12, align 4
  br label %53

53:                                               ; preds = %49, %28, %21
  call void @llvm.lifetime.end.p0(i64 8, ptr %11) #10
  call void @llvm.lifetime.end.p0(i64 8, ptr %10) #10
  call void @llvm.lifetime.end.p0(i64 8, ptr %9) #10
  call void @llvm.lifetime.end.p0(i64 4, ptr %8) #10
  %54 = load i32, ptr %4, align 4
  ret i32 %54
}