; Function Attrs: nounwind uwtable
define dso_local range(i32 0, 2019) i32 @drain_nodes(ptr noundef %0, ptr noundef %1, i32 noundef %2) local_unnamed_addr #0 {
  %4 = icmp eq ptr %0, null
  br i1 %4, label %8, label %5

5:                                                ; preds = %3
  %6 = load i8, ptr %0, align 1
  %7 = icmp eq i8 %6, 0
  br i1 %7, label %8, label %10

8:                                                ; preds = %5, %3
  %9 = tail call i32 (ptr, ...) @error(ptr noundef nonnull @.str.57, ptr noundef %0) #15
  br label %23

10:                                               ; preds = %5
  %11 = tail call ptr @hostlist_create(ptr noundef nonnull %0) #15
  %12 = icmp eq ptr %11, null
  br i1 %12, label %14, label %.preheader

.preheader:                                       ; preds = %10
  %13 = tail call ptr @hostlist_shift(ptr noundef nonnull %11) #15
  %.not21 = icmp eq ptr %13, null
  br i1 %.not21, label %.loopexit, label %.lr.ph

14:                                               ; preds = %10
  %15 = tail call i32 (ptr, ...) @error(ptr noundef nonnull @.str.58, ptr noundef nonnull %0) #15
  br label %23

.lr.ph:                                           ; preds = %.preheader, %20
  %16 = phi ptr [ %21, %20 ], [ %13, %.preheader ]
  %17 = tail call ptr @find_node_record(ptr noundef nonnull %16) #15
  %.not19 = icmp eq ptr %17, null
  br i1 %.not19, label %18, label %20

18:                                               ; preds = %.lr.ph
  %19 = tail call i32 (ptr, ...) @error(ptr noundef nonnull @.str.59, ptr noundef nonnull %16) #15
  tail call void @free(ptr noundef nonnull %16) #15
  br label %.loopexit

20:                                               ; preds = %.lr.ph
  tail call void @free(ptr noundef nonnull %16) #15
  tail call fastcc void @_drain_node(ptr noundef %17, ptr noundef %1, i32 noundef %2)
  %21 = tail call ptr @hostlist_shift(ptr noundef nonnull %11) #15
  %.not = icmp eq ptr %21, null
  br i1 %.not, label %.loopexit, label %.lr.ph, !llvm.loop !28

.loopexit:                                        ; preds = %20, %.preheader, %18
  %.015 = phi i32 [ 2018, %18 ], [ 0, %.preheader ], [ 0, %20 ]
  %22 = tail call i64 @time(ptr noundef null) #15
  store i64 %22, ptr @last_node_update, align 8
  tail call void @hostlist_destroy(ptr noundef nonnull %11) #15
  tail call void @validate_all_reservations(i1 noundef zeroext false, i1 noundef zeroext false) #15
  br label %23

23:                                               ; preds = %.loopexit, %14, %8
  %.0 = phi i32 [ 2018, %8 ], [ 2018, %14 ], [ %.015, %.loopexit ]
  ret i32 %.0
}